; Function Attrs: nounwind uwtable
define noalias nonnull ptr @l_Std_Time_Internal_Bounded_instOrd___rarg(ptr noundef readnone captures(none) %0, ptr noundef readnone captures(none) %1) local_unnamed_addr #1 {
  %3 = load ptr, ptr @l_Std_Time_Internal_Bounded_instOrd___rarg___closed__1, align 8, !tbaa !12
  tail call void @lean_inc_heartbeat() #5
  %4 = tail call noalias ptr @mi_malloc_small(i64 noundef 32) #5
  %5 = icmp eq ptr %4, null
  br i1 %5, label %6, label %lean_alloc_closure.exit

6:                                                ; preds = %2
  tail call void @lean_internal_panic_out_of_memory() #6
  unreachable

lean_alloc_closure.exit:                          ; preds = %2
  %7 = getelementptr inbounds nuw i8, ptr %4, i64 4
  store i32 1, ptr %4, align 4, !tbaa !4
  store i32 -184549344, ptr %7, align 4
  %8 = getelementptr inbounds nuw i8, ptr %4, i64 8
  store ptr @l_compareOn___at_Std_Time_Internal_Bounded_instOrd___spec__1___rarg___boxed, ptr %8, align 8, !tbaa !12
  %9 = getelementptr inbounds nuw i8, ptr %4, i64 16
  store i16 3, ptr %9, align 8, !tbaa !14
  %10 = getelementptr inbounds nuw i8, ptr %4, i64 18
  store i16 1, ptr %10, align 2, !tbaa !14
  %11 = getelementptr inbounds nuw i8, ptr %4, i64 24
  store ptr %3, ptr %11, align 8, !tbaa !12
  ret ptr %4
}